; Function Attrs: nounwind uwtable
define range(i32 -1, 1) i32 @H5O_dec_rc_by_loc(ptr nocapture noundef readonly %0) local_unnamed_addr #1 {
  %2 = tail call ptr @H5O_protect(ptr noundef %0, i32 noundef 128, i1 noundef zeroext false)
  %3 = icmp eq ptr %2, null
  br i1 %3, label %19, label %4

4:                                                ; preds = %1
  %5 = getelementptr inbounds i8, ptr %2, i64 272
  %6 = load i64, ptr %5, align 8
  %7 = add i64 %6, -1
  store i64 %7, ptr %5, align 8
  %8 = icmp eq i64 %7, 0
  br i1 %8, label %9, label %H5O__dec_rc.exit.thread

9:                                                ; preds = %4
  %10 = tail call i32 @H5AC_unpin_entry(ptr noundef nonnull %2) #11
  %11 = icmp slt i32 %10, 0
  br i1 %11, label %12, label %H5O__dec_rc.exit.thread

12:                                               ; preds = %9
  %13 = load i64, ptr @H5E_OHDR_g, align 8
  %14 = load i64, ptr @H5E_CANTUNPIN_g, align 8
  %15 = tail call i32 (ptr, ptr, i32, i64, i64, ptr, ...) @H5E_printf_stack(ptr noundef nonnull @.str.4, ptr noundef nonnull @__func__.H5O__dec_rc, i32 noundef 2786, i64 noundef %13, i64 noundef %14, ptr noundef nonnull @.str.38) #11
  %16 = load i64, ptr @H5E_OHDR_g, align 8
  %17 = load i64, ptr @H5E_CANTDEC_g, align 8
  %18 = tail call i32 (ptr, ptr, i32, i64, i64, ptr, ...) @H5E_printf_stack(ptr noundef nonnull @.str.4, ptr noundef nonnull @__func__.H5O_dec_rc_by_loc, i32 noundef 2820, i64 noundef %16, i64 noundef %17, ptr noundef nonnull @.str.50) #11
  br label %H5O__dec_rc.exit.thread

19:                                               ; preds = %1
  %20 = load i64, ptr @H5E_OHDR_g, align 8
  %21 = load i64, ptr @H5E_CANTPROTECT_g, align 8
  %22 = tail call i32 (ptr, ptr, i32, i64, i64, ptr, ...) @H5E_printf_stack(ptr noundef nonnull @.str.4, ptr noundef nonnull @__func__.H5O_dec_rc_by_loc, i32 noundef 2815, i64 noundef %20, i64 noundef %21, ptr noundef nonnull @.str.48) #11
  br label %29

H5O__dec_rc.exit.thread:                          ; preds = %4, %9, %12
  %.0.ph = phi i32 [ -1, %12 ], [ 0, %9 ], [ 0, %4 ]
  %23 = tail call i32 @H5O_unprotect(ptr noundef %0, ptr noundef nonnull %2, i32 noundef 0)
  %24 = icmp slt i32 %23, 0
  br i1 %24, label %25, label %29

25:                                               ; preds = %H5O__dec_rc.exit.thread
  %26 = load i64, ptr @H5E_OHDR_g, align 8
  %27 = load i64, ptr @H5E_CANTUNPROTECT_g, align 8
  %28 = tail call i32 (ptr, ptr, i32, i64, i64, ptr, ...) @H5E_printf_stack(ptr noundef nonnull @.str.4, ptr noundef nonnull @__func__.H5O_dec_rc_by_loc, i32 noundef 2825, i64 noundef %26, i64 noundef %27, ptr noundef nonnull @.str.47) #11
  br label %29

29:                                               ; preds = %19, %25, %H5O__dec_rc.exit.thread
  %.1 = phi i32 [ -1, %25 ], [ %.0.ph, %H5O__dec_rc.exit.thread ], [ -1, %19 ]
  ret i32 %.1
}